; Function Attrs: mustprogress uwtable
define noundef i64 @_ZNK32pxrInternal_v0_24__pxrReserved__21UsdGeomPointInstancer16GetInstanceCountENS_11UsdTimeCodeE(ptr noundef nonnull align 8 dereferenceable(24) %0, double %1) local_unnamed_addr #0 align 2 personality ptr @__gxx_personality_v0 {
  %3 = alloca %"class.pxrInternal_v0_24__pxrReserved__::UsdAttribute", align 8
  %4 = alloca %"class.pxrInternal_v0_24__pxrReserved__::VtArray.113", align 8
  call void @_ZNK32pxrInternal_v0_24__pxrReserved__21UsdGeomPointInstancer19GetProtoIndicesAttrEv(ptr dead_on_unwind nonnull writable sret(%"class.pxrInternal_v0_24__pxrReserved__::UsdAttribute") align 8 %3, ptr noundef nonnull align 8 dereferenceable(24) %0)
  invoke void @_ZN32pxrInternal_v0_24__pxrReserved__7VtArrayIiEC1Ev(ptr noundef nonnull align 8 dereferenceable(40) %4)
          to label %5 unwind label %42

5:                                                ; preds = %2
  %6 = invoke noundef zeroext i1 @_ZNK32pxrInternal_v0_24__pxrReserved__12UsdAttribute4_GetINS_7VtArrayIiEEEEbPT_NS_11UsdTimeCodeE(ptr noundef nonnull align 8 dereferenceable(32) %3, ptr noundef nonnull %4, double %1)
          to label %_ZNK32pxrInternal_v0_24__pxrReserved__12UsdAttribute3GetINS_7VtArrayIiEEEEbPT_NS_11UsdTimeCodeE.exit unwind label %44

_ZNK32pxrInternal_v0_24__pxrReserved__12UsdAttribute3GetINS_7VtArrayIiEEEEbPT_NS_11UsdTimeCodeE.exit: ; preds = %5
  %7 = invoke noundef i64 @_ZNK32pxrInternal_v0_24__pxrReserved__7VtArrayIiE4sizeEv(ptr noundef nonnull align 8 dereferenceable(40) %4)
          to label %8 unwind label %44

8:                                                ; preds = %_ZNK32pxrInternal_v0_24__pxrReserved__12UsdAttribute3GetINS_7VtArrayIiEEEEbPT_NS_11UsdTimeCodeE.exit
  call void @_ZN32pxrInternal_v0_24__pxrReserved__7VtArrayIiED1Ev(ptr noundef nonnull align 8 dereferenceable(40) %4) #23
  %9 = getelementptr inbounds nuw i8, ptr %3, i64 24
  %10 = load ptr, ptr %9, align 8
  %11 = ptrtoint ptr %10 to i64
  %12 = and i64 %11, 7
  %.not.i.i.i.i.i = icmp eq i64 %12, 0
  br i1 %.not.i.i.i.i.i, label %_ZN32pxrInternal_v0_24__pxrReserved__7TfTokenD2Ev.exit.i.i.i, label %13

13:                                               ; preds = %8
  %14 = and i64 %11, -8
  %15 = inttoptr i64 %14 to ptr
  %16 = atomicrmw sub ptr %15, i32 2 release, align 4
  br label %_ZN32pxrInternal_v0_24__pxrReserved__7TfTokenD2Ev.exit.i.i.i

_ZN32pxrInternal_v0_24__pxrReserved__7TfTokenD2Ev.exit.i.i.i: ; preds = %13, %8
  %17 = getelementptr inbounds nuw i8, ptr %3, i64 16
  %18 = load i32, ptr %17, align 8
  %.not.i.i1.i.i.i = icmp eq i32 %18, 0
  br i1 %.not.i.i1.i.i.i, label %_ZN32pxrInternal_v0_24__pxrReserved__7SdfPathD2Ev.exit.i.i.i, label %19

19:                                               ; preds = %_ZN32pxrInternal_v0_24__pxrReserved__7TfTokenD2Ev.exit.i.i.i
  %20 = and i32 %18, 255
  %21 = lshr i32 %18, 8
  %22 = zext nneg i32 %20 to i64
  %23 = getelementptr inbounds [257 x ptr], ptr @_ZN32pxrInternal_v0_24__pxrReserved__8Sdf_PoolINS_15Sdf_PathPrimTagELj24ELj8ELj16384EE13_regionStartsE, i64 0, i64 %22
  %24 = load ptr, ptr %23, align 8
  %25 = mul nuw nsw i32 %21, 24
  %26 = zext nneg i32 %25 to i64
  %27 = getelementptr inbounds i8, ptr %24, i64 %26
  %28 = getelementptr inbounds nuw i8, ptr %27, i64 8
  %29 = atomicrmw sub ptr %28, i32 1 seq_cst, align 4
  %30 = and i32 %29, 2147483647
  %31 = icmp eq i32 %30, 1
  br i1 %31, label %32, label %_ZN32pxrInternal_v0_24__pxrReserved__7SdfPathD2Ev.exit.i.i.i

32:                                               ; preds = %19
  invoke void @_ZNK32pxrInternal_v0_24__pxrReserved__12Sdf_PathNode8_DestroyEv(ptr noundef nonnull align 8 dereferenceable(16) %27)
          to label %_ZN32pxrInternal_v0_24__pxrReserved__7SdfPathD2Ev.exit.i.i.i unwind label %33

33:                                               ; preds = %32
  %34 = landingpad { ptr, i32 }
          catch ptr null
  %35 = extractvalue { ptr, i32 } %34, 0
  call void @__clang_call_terminate(ptr %35) #25
  unreachable

_ZN32pxrInternal_v0_24__pxrReserved__7SdfPathD2Ev.exit.i.i.i: ; preds = %32, %19, %_ZN32pxrInternal_v0_24__pxrReserved__7TfTokenD2Ev.exit.i.i.i
  %36 = getelementptr inbounds nuw i8, ptr %3, i64 8
  %37 = load ptr, ptr %36, align 8
  %.not.i.i.i.i.i.i = icmp eq ptr %37, null
  br i1 %.not.i.i.i.i.i.i, label %_ZN32pxrInternal_v0_24__pxrReserved__12UsdAttributeD2Ev.exit, label %38

38:                                               ; preds = %_ZN32pxrInternal_v0_24__pxrReserved__7SdfPathD2Ev.exit.i.i.i
  %39 = getelementptr inbounds nuw i8, ptr %37, i64 48
  %40 = atomicrmw sub ptr %39, i64 1 release, align 8
  %.not1.i.i.i.i.i.i = icmp eq i64 %40, 1
  br i1 %.not1.i.i.i.i.i.i, label %41, label %_ZN32pxrInternal_v0_24__pxrReserved__12UsdAttributeD2Ev.exit

41:                                               ; preds = %38
  call void @_ZN32pxrInternal_v0_24__pxrReserved__12Usd_PrimDataD1Ev(ptr noundef nonnull align 8 dereferenceable(64) %37) #23
  call void @_ZdlPvm(ptr noundef nonnull %37, i64 noundef 64) #24
  br label %_ZN32pxrInternal_v0_24__pxrReserved__12UsdAttributeD2Ev.exit

_ZN32pxrInternal_v0_24__pxrReserved__12UsdAttributeD2Ev.exit: ; preds = %_ZN32pxrInternal_v0_24__pxrReserved__7SdfPathD2Ev.exit.i.i.i, %38, %41
  ret i64 %7

42:                                               ; preds = %2
  %43 = landingpad { ptr, i32 }
          cleanup
  br label %46

44:                                               ; preds = %5, %_ZNK32pxrInternal_v0_24__pxrReserved__12UsdAttribute3GetINS_7VtArrayIiEEEEbPT_NS_11UsdTimeCodeE.exit
  %45 = landingpad { ptr, i32 }
          cleanup
  call void @_ZN32pxrInternal_v0_24__pxrReserved__7VtArrayIiED1Ev(ptr noundef nonnull align 8 dereferenceable(40) %4) #23
  br label %46

46:                                               ; preds = %44, %42
  %.pn = phi { ptr, i32 } [ %45, %44 ], [ %43, %42 ]
  call void @_ZN32pxrInternal_v0_24__pxrReserved__12UsdAttributeD2Ev(ptr noundef nonnull align 8 dereferenceable(32) %3) #23
  resume { ptr, i32 } %.pn
}